target datalayout = "e-m:e-p270:32:32-p271:32:32-p272:64:64-i64:64-i128:128-f80:128-n8:16:32:64-S128"
target triple = "x86_64-pc-linux-gnu"

@.str.3 = private unnamed_addr constant [46 x i8] c"yaml-cpp: internal error, invalid indent type\00", align 1
@_ZTISt13runtime_error = external constant ptr

; Function Attrs: mustprogress uwtable
define noundef i32 @_ZNK4YAML7Scanner16GetStartTokenForENS0_12IndentMarker11INDENT_TYPEE(ptr noundef nonnull align 8 dereferenceable(488) %0, i32 noundef %1) #0 align 2 personality ptr @__gxx_personality_v0 {
  %3 = alloca i32, align 4
  %4 = alloca ptr, align 8
  %5 = alloca i32, align 4
  %6 = alloca ptr, align 8
  %7 = alloca i32, align 4
  store ptr %0, ptr %4, align 8, !tbaa !3
  store i32 %1, ptr %5, align 4, !tbaa !127
  %8 = load i32, ptr %5, align 4, !tbaa !127
  switch i32 %8, label %12 [
    i32 1, label %9
    i32 0, label %10
    i32 2, label %11
  ]

9:                                                ; preds = %2
  store i32 3, ptr %3, align 4
  br label %19

10:                                               ; preds = %2
  store i32 4, ptr %3, align 4
  br label %19

11:                                               ; preds = %2
  br label %12

12:                                               ; preds = %2, %11
  %13 = call ptr @__cxa_allocate_exception(i64 16) #11
  invoke void @_ZNSt13runtime_errorC1EPKc(ptr noundef nonnull align 8 dereferenceable(16) %13, ptr noundef @.str.3)
          to label %14 unwind label %15

14:                                               ; preds = %12
  call void @__cxa_throw(ptr %13, ptr @_ZTISt13runtime_error, ptr @_ZNSt13runtime_errorD1Ev) #16
  unreachable

15:                                               ; preds = %12
  %16 = landingpad { ptr, i32 }
          cleanup
  %17 = extractvalue { ptr, i32 } %16, 0
  store ptr %17, ptr %6, align 8
  %18 = extractvalue { ptr, i32 } %16, 1
  store i32 %18, ptr %7, align 4
  call void @__cxa_free_exception(ptr %13) #11
  br label %21

19:                                               ; preds = %10, %9
  %20 = load i32, ptr %3, align 4
  ret i32 %20

21:                                               ; preds = %15
  %22 = load ptr, ptr %6, align 8
  %23 = load i32, ptr %7, align 4
  %24 = insertvalue { ptr, i32 } poison, ptr %22, 0
  %25 = insertvalue { ptr, i32 } %24, i32 %23, 1
  resume { ptr, i32 } %25
}