; Function Attrs: mustprogress uwtable
define noundef range(i32 3, 5) i32 @_ZNK4YAML7Scanner16GetStartTokenForENS0_12IndentMarker11INDENT_TYPEE(ptr noundef nonnull readnone align 8 captures(none) dereferenceable(488) %0, i32 noundef %1) local_unnamed_addr #0 align 2 personality ptr @__gxx_personality_v0 {
  switch i32 %1, label %4 [
    i32 1, label %9
    i32 0, label %3
  ]

3:                                                ; preds = %2
  br label %9

4:                                                ; preds = %2
  %5 = tail call ptr @__cxa_allocate_exception(i64 16) #23
  invoke void @_ZNSt13runtime_errorC1EPKc(ptr noundef nonnull align 8 dereferenceable(16) %5, ptr noundef nonnull @.str.3)
          to label %6 unwind label %7

6:                                                ; preds = %4
  tail call void @__cxa_throw(ptr nonnull %5, ptr nonnull @_ZTISt13runtime_error, ptr nonnull @_ZNSt13runtime_errorD1Ev) #25
  unreachable

7:                                                ; preds = %4
  %8 = landingpad { ptr, i32 }
          cleanup
  tail call void @__cxa_free_exception(ptr nonnull %5) #23
  resume { ptr, i32 } %8

9:                                                ; preds = %2, %3
  %.0 = phi i32 [ 4, %3 ], [ 3, %2 ]
  ret i32 %.0
}